target datalayout = "e-m:e-p270:32:32-p271:32:32-p272:64:64-i64:64-i128:128-f80:128-n8:16:32:64-S128"
target triple = "x86_64-pc-linux-gnu"

%struct.redisServer = type { i32, i64, ptr, ptr, ptr, i32, i32, i32, i32, i32, ptr, ptr, ptr, ptr, ptr, i32, i32, i32, i32, i64, i32, i32, i32, i32, ptr, i32, i32, [41 x i8], i32, i64, i32, i32, i32, ptr, ptr, i32, i32, i64, ptr, ptr, ptr, ptr, [2 x i32], i32, i32, i32, i32, i32, i32, [16 x ptr], i32, ptr, ptr, i32, [8 x %struct.connListener], i32, %struct.connListener, ptr, ptr, ptr, ptr, ptr, ptr, ptr, ptr, ptr, ptr, i32, ptr, i32, ptr, [3 x %struct.pause_event], [256 x i8], ptr, i64, i32, i32, [128 x i32], i32, i32, i64, i32, i32, i32, i32, i32, i64, i64, i64, i64, i64, i64, i64, i64, i64, i64, double, i64, i64, i64, i64, i64, i64, i64, i64, i64, i64, i64, i64, i64, i64, i64, i64, i64, i64, i64, i64, i64, double, i64, i64, i64, i64, i64, ptr, i64, i64, i64, %struct.malloc_stats, i64, i64, i64, i64, i64, i64, i64, i64, i64, i64, i64, i64, double, [4 x i64], i64, i64, i64, i64, [128 x i64], [128 x i64], i64, i64, [7 x %struct.anon], i64, i64, i64, i64, i64, i64, [4 x %struct.durationStats], i32, i32, i32, i32, i32, i32, i32, i32, i32, i32, i32, i32, i64, i32, i32, i32, i32, i64, i64, i32, i32, i32, i32, i32, ptr, [3 x %struct.clientBufferLimitsConfig], i32, i32, i32, ptr, i32, i32, i32, i32, i32, i32, ptr, ptr, i32, i32, i64, i64, i64, i64, i64, i32, i32, ptr, i32, i32, i64, i64, i64, i64, i64, i32, i32, i64, i32, i32, i32, i32, i32, i32, i32, i32, ptr, i32, i64, i64, i64, i64, i32, ptr, i32, ptr, i32, i32, i32, i64, i64, i64, i64, i32, i32, i32, i32, i32, i32, ptr, i32, i32, ptr, i32, i32, i32, [2 x i32], i32, %struct.redisOpArray, i32, ptr, i32, ptr, i32, i32, i32, i32, i32, i32, i32, [41 x i8], [41 x i8], i64, i64, i64, i64, i32, i32, ptr, i64, i64, %struct.replDataBuf, i64, i64, i32, i32, i32, i32, i32, i32, i32, i32, i32, i64, ptr, i64, ptr, ptr, ptr, i32, i32, ptr, ptr, i32, i32, i32, i64, i64, i64, i64, ptr, ptr, i32, ptr, i64, i32, i32, i32, i64, i32, i32, i32, i32, ptr, i32, i32, [41 x i8], i64, i32, ptr, i32, i32, i64, i64, i32, i32, i32, i32, i32, i64, [3 x i32], i32, i32, i32, [10 x i32], ptr, ptr, i32, i64, ptr, ptr, i32, i32, i32, i32, i64, i64, i64, i64, i64, i64, i64, i64, i64, i64, i32, i32, i64, i64, i32, i64, i64, i64, i64, i64, ptr, ptr, i32, ptr, i32, i32, i32, i32, i64, i64, ptr, ptr, i32, i32, i32, i32, i32, ptr, ptr, ptr, i32, i32, i32, i32, i32, i32, i32, i64, i32, i32, i64, i32, i32, i32, i32, i32, i32, i32, i64, ptr, ptr, i64, ptr, i32, %struct.aclInfo, i32, i64, i32, i32, i32, %struct.redisTLSContextConfig, ptr, ptr, ptr, ptr, ptr, i64, i32, ptr, i32, i32, i32, i64, i32, ptr }
%struct.connListener = type { [16 x i32], i32, ptr, i32, i32, ptr, ptr }
%struct.pause_event = type { i32, i64 }
%struct.malloc_stats = type { i64, i64, i64, i64, i64, i64, i64, i64, i64, i64, i64 }
%struct.anon = type { i64, i64, [16 x i64], i32 }
%struct.durationStats = type { i64, i64, i64 }
%struct.clientBufferLimitsConfig = type { i64, i64, i64 }
%struct.redisOpArray = type { ptr, i32, i32 }
%struct.replDataBuf = type { ptr, i64, i64, i64, i64 }
%struct.aclInfo = type { i64, i64, i64, i64 }
%struct.redisTLSContextConfig = type { ptr, ptr, ptr, ptr, ptr, ptr, ptr, ptr, ptr, ptr, ptr, ptr, i32, i32, i32, i32 }
%struct.aofInfo = type { ptr, i64, i32, i64, i64 }
%struct.aofManifest = type { ptr, ptr, ptr, i64, i64, i32 }
%struct.list = type { ptr, ptr, ptr, ptr, ptr, i64 }
%struct.listIter = type { ptr, i32 }
%struct.listNode = type { ptr, ptr, ptr }

@.str.1 = private unnamed_addr constant [6 x i8] c"aof.c\00", align 1
@.str.2 = private unnamed_addr constant [13 x i8] c"orig != NULL\00", align 1
@server = external global %struct.redisServer, align 8
@.str.15 = private unnamed_addr constant [11 x i8] c"am != NULL\00", align 1
@.str.41 = private unnamed_addr constant [11 x i8] c"ln != NULL\00", align 1
@.str.42 = private unnamed_addr constant [36 x i8] c"ai->file_type == AOF_FILE_TYPE_INCR\00", align 1

; Function Attrs: nounwind uwtable
define dso_local ptr @aofInfoCreate() #0 {
  %1 = alloca ptr, align 8
  call void @llvm.lifetime.start.p0(i64 8, ptr %1) #12
  %2 = call noalias ptr @zcalloc(i64 noundef 40) #13
  store ptr %2, ptr %1, align 8, !tbaa !5
  %3 = load ptr, ptr %1, align 8, !tbaa !5
  %4 = getelementptr inbounds nuw %struct.aofInfo, ptr %3, i32 0, i32 3
  store i64 -1, ptr %4, align 8, !tbaa !9
  %5 = load ptr, ptr %1, align 8, !tbaa !5
  %6 = getelementptr inbounds nuw %struct.aofInfo, ptr %5, i32 0, i32 4
  store i64 -1, ptr %6, align 8, !tbaa !14
  %7 = load ptr, ptr %1, align 8, !tbaa !5
  call void @llvm.lifetime.end.p0(i64 8, ptr %1) #12
  ret ptr %7
}

; Function Attrs: nounwind uwtable
define dso_local ptr @aofInfoDup(ptr noundef %0) #0 {
  %2 = alloca ptr, align 8
  %3 = alloca ptr, align 8
  store ptr %0, ptr %2, align 8, !tbaa !5
  %4 = load ptr, ptr %2, align 8, !tbaa !5
  %5 = icmp ne ptr %4, null
  %6 = xor i1 %5, true
  %7 = xor i1 %6, true
  %8 = zext i1 %7 to i32
  %9 = sext i32 %8 to i64
  %10 = call i64 @llvm.expect.i64(i64 %9, i64 1)
  %11 = icmp ne i64 %10, 0
  br i1 %11, label %12, label %13

12:                                               ; preds = %1
  br label %15

13:                                               ; preds = %1
  call void @_serverAssert(ptr noundef @.str.2, ptr noundef @.str.1, i32 noundef 103)
  call void @abort() #14
  unreachable

14:                                               ; No predecessors!
  br label %15

15:                                               ; preds = %14, %12
  call void @llvm.lifetime.start.p0(i64 8, ptr %3) #12
  %16 = call ptr @aofInfoCreate()
  store ptr %16, ptr %3, align 8, !tbaa !5
  %17 = load ptr, ptr %2, align 8, !tbaa !5
  %18 = getelementptr inbounds nuw %struct.aofInfo, ptr %17, i32 0, i32 0
  %19 = load ptr, ptr %18, align 8, !tbaa !15
  %20 = call ptr @sdsdup(ptr noundef %19)
  %21 = load ptr, ptr %3, align 8, !tbaa !5
  %22 = getelementptr inbounds nuw %struct.aofInfo, ptr %21, i32 0, i32 0
  store ptr %20, ptr %22, align 8, !tbaa !15
  %23 = load ptr, ptr %2, align 8, !tbaa !5
  %24 = getelementptr inbounds nuw %struct.aofInfo, ptr %23, i32 0, i32 1
  %25 = load i64, ptr %24, align 8, !tbaa !16
  %26 = load ptr, ptr %3, align 8, !tbaa !5
  %27 = getelementptr inbounds nuw %struct.aofInfo, ptr %26, i32 0, i32 1
  store i64 %25, ptr %27, align 8, !tbaa !16
  %28 = load ptr, ptr %2, align 8, !tbaa !5
  %29 = getelementptr inbounds nuw %struct.aofInfo, ptr %28, i32 0, i32 2
  %30 = load i32, ptr %29, align 8, !tbaa !17
  %31 = load ptr, ptr %3, align 8, !tbaa !5
  %32 = getelementptr inbounds nuw %struct.aofInfo, ptr %31, i32 0, i32 2
  store i32 %30, ptr %32, align 8, !tbaa !17
  %33 = load ptr, ptr %2, align 8, !tbaa !5
  %34 = getelementptr inbounds nuw %struct.aofInfo, ptr %33, i32 0, i32 3
  %35 = load i64, ptr %34, align 8, !tbaa !9
  %36 = load ptr, ptr %3, align 8, !tbaa !5
  %37 = getelementptr inbounds nuw %struct.aofInfo, ptr %36, i32 0, i32 3
  store i64 %35, ptr %37, align 8, !tbaa !9
  %38 = load ptr, ptr %2, align 8, !tbaa !5
  %39 = getelementptr inbounds nuw %struct.aofInfo, ptr %38, i32 0, i32 4
  %40 = load i64, ptr %39, align 8, !tbaa !14
  %41 = load ptr, ptr %3, align 8, !tbaa !5
  %42 = getelementptr inbounds nuw %struct.aofInfo, ptr %41, i32 0, i32 4
  store i64 %40, ptr %42, align 8, !tbaa !14
  %43 = load ptr, ptr %3, align 8, !tbaa !5
  call void @llvm.lifetime.end.p0(i64 8, ptr %3) #12
  ret ptr %43
}

; Function Attrs: nounwind uwtable
define dso_local void @markRewrittenIncrAofAsHistory(ptr noundef %0) #0 {
  %2 = alloca ptr, align 8
  %3 = alloca ptr, align 8
  %4 = alloca %struct.listIter, align 8
  %5 = alloca ptr, align 8
  %6 = alloca ptr, align 8
  store ptr %0, ptr %2, align 8, !tbaa !5
  %7 = load ptr, ptr %2, align 8, !tbaa !5
  %8 = icmp ne ptr %7, null
  %9 = xor i1 %8, true
  %10 = xor i1 %9, true
  %11 = zext i1 %10 to i32
  %12 = sext i32 %11 to i64
  %13 = call i64 @llvm.expect.i64(i64 %12, i64 1)
  %14 = icmp ne i64 %13, 0
  br i1 %14, label %15, label %16

15:                                               ; preds = %1
  br label %18

16:                                               ; preds = %1
  call void @_serverAssert(ptr noundef @.str.15, ptr noundef @.str.1, i32 noundef 502)
  call void @abort() #14
  unreachable

17:                                               ; No predecessors!
  br label %18

18:                                               ; preds = %17, %15
  %19 = load ptr, ptr %2, align 8, !tbaa !5
  %20 = getelementptr inbounds nuw %struct.aofManifest, ptr %19, i32 0, i32 1
  %21 = load ptr, ptr %20, align 8, !tbaa !25
  %22 = getelementptr inbounds nuw %struct.list, ptr %21, i32 0, i32 5
  %23 = load i64, ptr %22, align 8, !tbaa !77
  %24 = icmp ne i64 %23, 0
  br i1 %24, label %26, label %25

25:                                               ; preds = %18
  br label %84

26:                                               ; preds = %18
  call void @llvm.lifetime.start.p0(i64 8, ptr %3) #12
  call void @llvm.lifetime.start.p0(i64 16, ptr %4) #12
  %27 = load ptr, ptr %2, align 8, !tbaa !5
  %28 = getelementptr inbounds nuw %struct.aofManifest, ptr %27, i32 0, i32 1
  %29 = load ptr, ptr %28, align 8, !tbaa !25
  call void @listRewindTail(ptr noundef %29, ptr noundef %4)
  %30 = load i32, ptr getelementptr inbounds nuw (%struct.redisServer, ptr @server, i32 0, i32 207), align 8, !tbaa !79
  %31 = icmp ne i32 %30, -1
  br i1 %31, label %32, label %46

32:                                               ; preds = %26
  %33 = call ptr @listNext(ptr noundef %4)
  store ptr %33, ptr %3, align 8, !tbaa !59
  %34 = load ptr, ptr %3, align 8, !tbaa !59
  %35 = icmp ne ptr %34, null
  %36 = xor i1 %35, true
  %37 = xor i1 %36, true
  %38 = zext i1 %37 to i32
  %39 = sext i32 %38 to i64
  %40 = call i64 @llvm.expect.i64(i64 %39, i64 1)
  %41 = icmp ne i64 %40, 0
  br i1 %41, label %42, label %43

42:                                               ; preds = %32
  br label %45

43:                                               ; preds = %32
  call void @_serverAssert(ptr noundef @.str.41, ptr noundef @.str.1, i32 noundef 516)
  call void @abort() #14
  unreachable

44:                                               ; No predecessors!
  br label %45

45:                                               ; preds = %44, %42
  br label %46

46:                                               ; preds = %45, %26
  br label %47

47:                                               ; preds = %67, %46
  %48 = call ptr @listNext(ptr noundef %4)
  store ptr %48, ptr %3, align 8, !tbaa !59
  %49 = icmp ne ptr %48, null
  br i1 %49, label %50, label %81

50:                                               ; preds = %47
  call void @llvm.lifetime.start.p0(i64 8, ptr %5) #12
  %51 = load ptr, ptr %3, align 8, !tbaa !59
  %52 = getelementptr inbounds nuw %struct.listNode, ptr %51, i32 0, i32 2
  %53 = load ptr, ptr %52, align 8, !tbaa !60
  store ptr %53, ptr %5, align 8, !tbaa !5
  %54 = load ptr, ptr %5, align 8, !tbaa !5
  %55 = getelementptr inbounds nuw %struct.aofInfo, ptr %54, i32 0, i32 2
  %56 = load i32, ptr %55, align 8, !tbaa !17
  %57 = icmp eq i32 %56, 105
  %58 = xor i1 %57, true
  %59 = xor i1 %58, true
  %60 = zext i1 %59 to i32
  %61 = sext i32 %60 to i64
  %62 = call i64 @llvm.expect.i64(i64 %61, i64 1)
  %63 = icmp ne i64 %62, 0
  br i1 %63, label %64, label %65

64:                                               ; preds = %50
  br label %67

65:                                               ; preds = %50
  call void @_serverAssert(ptr noundef @.str.42, ptr noundef @.str.1, i32 noundef 522)
  call void @abort() #14
  unreachable

66:                                               ; No predecessors!
  br label %67

67:                                               ; preds = %66, %64
  call void @llvm.lifetime.start.p0(i64 8, ptr %6) #12
  %68 = load ptr, ptr %5, align 8, !tbaa !5
  %69 = call ptr @aofInfoDup(ptr noundef %68)
  store ptr %69, ptr %6, align 8, !tbaa !5
  %70 = load ptr, ptr %6, align 8, !tbaa !5
  %71 = getelementptr inbounds nuw %struct.aofInfo, ptr %70, i32 0, i32 2
  store i32 104, ptr %71, align 8, !tbaa !17
  %72 = load ptr, ptr %2, align 8, !tbaa !5
  %73 = getelementptr inbounds nuw %struct.aofManifest, ptr %72, i32 0, i32 2
  %74 = load ptr, ptr %73, align 8, !tbaa !28
  %75 = load ptr, ptr %6, align 8, !tbaa !5
  %76 = call ptr @listAddNodeHead(ptr noundef %74, ptr noundef %75)
  %77 = load ptr, ptr %2, align 8, !tbaa !5
  %78 = getelementptr inbounds nuw %struct.aofManifest, ptr %77, i32 0, i32 1
  %79 = load ptr, ptr %78, align 8, !tbaa !25
  %80 = load ptr, ptr %3, align 8, !tbaa !59
  call void @listDelNode(ptr noundef %79, ptr noundef %80)
  call void @llvm.lifetime.end.p0(i64 8, ptr %6) #12
  call void @llvm.lifetime.end.p0(i64 8, ptr %5) #12
  br label %47, !llvm.loop !80

81:                                               ; preds = %47
  %82 = load ptr, ptr %2, align 8, !tbaa !5
  %83 = getelementptr inbounds nuw %struct.aofManifest, ptr %82, i32 0, i32 5
  store i32 1, ptr %83, align 8, !tbaa !75
  call void @llvm.lifetime.end.p0(i64 16, ptr %4) #12
  call void @llvm.lifetime.end.p0(i64 8, ptr %3) #12
  br label %84

84:                                               ; preds = %81, %25
  ret void
}