; Function Attrs: nounwind uwtable
define dso_local void @markRewrittenIncrAofAsHistory(ptr noundef captures(address_is_null) %0) local_unnamed_addr #0 {
  %2 = alloca %struct.listIter, align 8
  %.not = icmp eq ptr %0, null
  br i1 %.not, label %3, label %4, !prof !5

3:                                                ; preds = %1
  tail call void @_serverAssert(ptr noundef nonnull @.str.15, ptr noundef nonnull @.str.1, i32 noundef 502) #20
  tail call void @abort() #21
  unreachable

4:                                                ; preds = %1
  %5 = getelementptr inbounds nuw i8, ptr %0, i64 8
  %6 = load ptr, ptr %5, align 8, !tbaa !24
  %7 = getelementptr inbounds nuw i8, ptr %6, i64 40
  %8 = load i64, ptr %7, align 8, !tbaa !73
  %.not14 = icmp eq i64 %8, 0
  br i1 %.not14, label %43, label %9

9:                                                ; preds = %4
  call void @llvm.lifetime.start.p0(i64 16, ptr nonnull %2) #20
  call void @listRewindTail(ptr noundef nonnull %6, ptr noundef nonnull %2) #20
  %10 = load i32, ptr getelementptr inbounds nuw (i8, ptr @server, i64 6608), align 8, !tbaa !75
  %.not15 = icmp eq i32 %10, -1
  br i1 %.not15, label %14, label %11

11:                                               ; preds = %9
  %12 = call ptr @listNext(ptr noundef nonnull %2) #20
  %.not16 = icmp eq ptr %12, null
  br i1 %.not16, label %13, label %14, !prof !5

13:                                               ; preds = %11
  call void @_serverAssert(ptr noundef nonnull @.str.41, ptr noundef nonnull @.str.1, i32 noundef 516) #20
  call void @abort() #21
  unreachable

14:                                               ; preds = %11, %9
  %15 = call ptr @listNext(ptr noundef nonnull %2) #20
  %.not1718 = icmp eq ptr %15, null
  br i1 %.not1718, label %._crit_edge, label %.lr.ph

.lr.ph:                                           ; preds = %14
  %16 = getelementptr inbounds nuw i8, ptr %0, i64 16
  br label %17

17:                                               ; preds = %.lr.ph, %aofInfoDup.exit
  %18 = phi ptr [ %15, %.lr.ph ], [ %41, %aofInfoDup.exit ]
  %19 = getelementptr inbounds nuw i8, ptr %18, i64 16
  %20 = load ptr, ptr %19, align 8, !tbaa !58
  %21 = getelementptr inbounds nuw i8, ptr %20, i64 16
  %22 = load i32, ptr %21, align 8, !tbaa !15
  %23 = icmp eq i32 %22, 105
  br i1 %23, label %aofInfoDup.exit, label %24, !prof !71

24:                                               ; preds = %17
  call void @_serverAssert(ptr noundef nonnull @.str.42, ptr noundef nonnull @.str.1, i32 noundef 522) #20
  call void @abort() #21
  unreachable

aofInfoDup.exit:                                  ; preds = %17
  %25 = call noalias noundef dereferenceable_or_null(40) ptr @zcalloc(i64 noundef 40) #19
  %26 = getelementptr inbounds nuw i8, ptr %25, i64 24
  %27 = load ptr, ptr %20, align 8, !tbaa !6
  %28 = call ptr @sdsdup(ptr noundef %27) #20
  store ptr %28, ptr %25, align 8, !tbaa !6
  %29 = getelementptr inbounds nuw i8, ptr %20, i64 8
  %30 = load i64, ptr %29, align 8, !tbaa !14
  %31 = getelementptr inbounds nuw i8, ptr %25, i64 8
  store i64 %30, ptr %31, align 8, !tbaa !14
  %32 = getelementptr inbounds nuw i8, ptr %25, i64 16
  %33 = getelementptr inbounds nuw i8, ptr %20, i64 24
  %34 = load i64, ptr %33, align 8, !tbaa !16
  store i64 %34, ptr %26, align 8, !tbaa !16
  %35 = getelementptr inbounds nuw i8, ptr %20, i64 32
  %36 = load i64, ptr %35, align 8, !tbaa !17
  %37 = getelementptr inbounds nuw i8, ptr %25, i64 32
  store i64 %36, ptr %37, align 8, !tbaa !17
  store i32 104, ptr %32, align 8, !tbaa !15
  %38 = load ptr, ptr %16, align 8, !tbaa !27
  %39 = call ptr @listAddNodeHead(ptr noundef %38, ptr noundef nonnull %25) #20
  %40 = load ptr, ptr %5, align 8, !tbaa !24
  call void @listDelNode(ptr noundef %40, ptr noundef nonnull %18) #20
  %41 = call ptr @listNext(ptr noundef nonnull %2) #20
  %.not17 = icmp eq ptr %41, null
  br i1 %.not17, label %._crit_edge, label %17, !llvm.loop !76

._crit_edge:                                      ; preds = %aofInfoDup.exit, %14
  %42 = getelementptr inbounds nuw i8, ptr %0, i64 40
  store i32 1, ptr %42, align 8, !tbaa !70
  call void @llvm.lifetime.end.p0(i64 16, ptr nonnull %2) #20
  br label %43

43:                                               ; preds = %4, %._crit_edge
  ret void
}